target datalayout = "e-m:e-p270:32:32-p271:32:32-p272:64:64-i64:64-i128:128-f80:128-n8:16:32:64-S128"
target triple = "x86_64-pc-linux-gnu"

%struct.asn1_string_st = type { i32, i32, ptr, i64 }

@.str = private unnamed_addr constant [34 x i8] c"../openssl/crypto/asn1/asn1_lib.c\00", align 1
@__func__.ASN1_STRING_set = private unnamed_addr constant [16 x i8] c"ASN1_STRING_set\00", align 1

; Function Attrs: nounwind uwtable
define i32 @ASN1_STRING_set(ptr noundef %0, ptr noundef %1, i32 noundef %2) #0 {
  %4 = alloca i32, align 4
  %5 = alloca ptr, align 8
  %6 = alloca ptr, align 8
  %7 = alloca i32, align 4
  %8 = alloca ptr, align 8
  %9 = alloca ptr, align 8
  %10 = alloca i64, align 8
  %11 = alloca i32, align 4
  store ptr %0, ptr %5, align 8, !tbaa !29
  store ptr %1, ptr %6, align 8, !tbaa !36
  store i32 %2, ptr %7, align 4, !tbaa !17
  call void @llvm.lifetime.start.p0(i64 8, ptr %8) #7
  call void @llvm.lifetime.start.p0(i64 8, ptr %9) #7
  %12 = load ptr, ptr %6, align 8, !tbaa !36
  store ptr %12, ptr %9, align 8, !tbaa !10
  call void @llvm.lifetime.start.p0(i64 8, ptr %10) #7
  %13 = load i32, ptr %7, align 4, !tbaa !17
  %14 = icmp slt i32 %13, 0
  br i1 %14, label %15, label %22

15:                                               ; preds = %3
  %16 = load ptr, ptr %9, align 8, !tbaa !10
  %17 = icmp eq ptr %16, null
  br i1 %17, label %18, label %19

18:                                               ; preds = %15
  store i32 0, ptr %4, align 4
  store i32 1, ptr %11, align 4
  br label %79

19:                                               ; preds = %15
  %20 = load ptr, ptr %9, align 8, !tbaa !10
  %21 = call i64 @strlen(ptr noundef %20) #8
  store i64 %21, ptr %10, align 8, !tbaa !8
  br label %25

22:                                               ; preds = %3
  %23 = load i32, ptr %7, align 4, !tbaa !17
  %24 = sext i32 %23 to i64
  store i64 %24, ptr %10, align 8, !tbaa !8
  br label %25

25:                                               ; preds = %22, %19
  %26 = load i64, ptr %10, align 8, !tbaa !8
  %27 = icmp ugt i64 %26, 2147483646
  br i1 %27, label %28, label %29

28:                                               ; preds = %25
  call void @ERR_new()
  call void @ERR_set_debug(ptr noundef @.str, i32 noundef 305, ptr noundef @__func__.ASN1_STRING_set)
  call void (i32, i32, ptr, ...) @ERR_set_error(i32 noundef 13, i32 noundef 223, ptr noundef null)
  store i32 0, ptr %4, align 4
  store i32 1, ptr %11, align 4
  br label %79

29:                                               ; preds = %25
  %30 = load ptr, ptr %5, align 8, !tbaa !29
  %31 = getelementptr inbounds nuw %struct.asn1_string_st, ptr %30, i32 0, i32 0
  %32 = load i32, ptr %31, align 8, !tbaa !35
  %33 = sext i32 %32 to i64
  %34 = load i64, ptr %10, align 8, !tbaa !8
  %35 = icmp ule i64 %33, %34
  br i1 %35, label %41, label %36

36:                                               ; preds = %29
  %37 = load ptr, ptr %5, align 8, !tbaa !29
  %38 = getelementptr inbounds nuw %struct.asn1_string_st, ptr %37, i32 0, i32 2
  %39 = load ptr, ptr %38, align 8, !tbaa !34
  %40 = icmp eq ptr %39, null
  br i1 %40, label %41, label %60

41:                                               ; preds = %36, %29
  %42 = load ptr, ptr %5, align 8, !tbaa !29
  %43 = getelementptr inbounds nuw %struct.asn1_string_st, ptr %42, i32 0, i32 2
  %44 = load ptr, ptr %43, align 8, !tbaa !34
  store ptr %44, ptr %8, align 8, !tbaa !10
  %45 = load ptr, ptr %8, align 8, !tbaa !10
  %46 = load i64, ptr %10, align 8, !tbaa !8
  %47 = add i64 %46, 1
  %48 = call ptr @CRYPTO_realloc(ptr noundef %45, i64 noundef %47, ptr noundef @.str, i32 noundef 314)
  %49 = load ptr, ptr %5, align 8, !tbaa !29
  %50 = getelementptr inbounds nuw %struct.asn1_string_st, ptr %49, i32 0, i32 2
  store ptr %48, ptr %50, align 8, !tbaa !34
  %51 = load ptr, ptr %5, align 8, !tbaa !29
  %52 = getelementptr inbounds nuw %struct.asn1_string_st, ptr %51, i32 0, i32 2
  %53 = load ptr, ptr %52, align 8, !tbaa !34
  %54 = icmp eq ptr %53, null
  br i1 %54, label %55, label %59

55:                                               ; preds = %41
  %56 = load ptr, ptr %8, align 8, !tbaa !10
  %57 = load ptr, ptr %5, align 8, !tbaa !29
  %58 = getelementptr inbounds nuw %struct.asn1_string_st, ptr %57, i32 0, i32 2
  store ptr %56, ptr %58, align 8, !tbaa !34
  store i32 0, ptr %4, align 4
  store i32 1, ptr %11, align 4
  br label %79

59:                                               ; preds = %41
  br label %60

60:                                               ; preds = %59, %36
  %61 = load i64, ptr %10, align 8, !tbaa !8
  %62 = trunc i64 %61 to i32
  %63 = load ptr, ptr %5, align 8, !tbaa !29
  %64 = getelementptr inbounds nuw %struct.asn1_string_st, ptr %63, i32 0, i32 0
  store i32 %62, ptr %64, align 8, !tbaa !35
  %65 = load ptr, ptr %9, align 8, !tbaa !10
  %66 = icmp ne ptr %65, null
  br i1 %66, label %67, label %78

67:                                               ; preds = %60
  %68 = load ptr, ptr %5, align 8, !tbaa !29
  %69 = getelementptr inbounds nuw %struct.asn1_string_st, ptr %68, i32 0, i32 2
  %70 = load ptr, ptr %69, align 8, !tbaa !34
  %71 = load ptr, ptr %9, align 8, !tbaa !10
  %72 = load i64, ptr %10, align 8, !tbaa !8
  call void @llvm.memcpy.p0.p0.i64(ptr align 1 %70, ptr align 1 %71, i64 %72, i1 false)
  %73 = load ptr, ptr %5, align 8, !tbaa !29
  %74 = getelementptr inbounds nuw %struct.asn1_string_st, ptr %73, i32 0, i32 2
  %75 = load ptr, ptr %74, align 8, !tbaa !34
  %76 = load i64, ptr %10, align 8, !tbaa !8
  %77 = getelementptr inbounds nuw i8, ptr %75, i64 %76
  store i8 0, ptr %77, align 1, !tbaa !12
  br label %78

78:                                               ; preds = %67, %60
  store i32 1, ptr %4, align 4
  store i32 1, ptr %11, align 4
  br label %79

79:                                               ; preds = %78, %55, %28, %18
  call void @llvm.lifetime.end.p0(i64 8, ptr %10) #7
  call void @llvm.lifetime.end.p0(i64 8, ptr %9) #7
  call void @llvm.lifetime.end.p0(i64 8, ptr %8) #7
  %80 = load i32, ptr %4, align 4
  ret i32 %80
}