; Function Attrs: nounwind uwtable
define range(i32 0, 2) i32 @ASN1_STRING_set(ptr noundef captures(none) %0, ptr noundef readonly captures(address_is_null) %1, i32 noundef %2) local_unnamed_addr #1 {
  %4 = icmp slt i32 %2, 0
  br i1 %4, label %5, label %9

5:                                                ; preds = %3
  %6 = icmp eq ptr %1, null
  br i1 %6, label %34, label %7

7:                                                ; preds = %5
  %8 = tail call i64 @strlen(ptr noundef nonnull dereferenceable(1) %1) #14
  br label %11

9:                                                ; preds = %3
  %10 = zext nneg i32 %2 to i64
  br label %11

11:                                               ; preds = %9, %7
  %.0 = phi i64 [ %8, %7 ], [ %10, %9 ]
  %12 = icmp ugt i64 %.0, 2147483646
  br i1 %12, label %13, label %14

13:                                               ; preds = %11
  tail call void @ERR_new() #13
  tail call void @ERR_set_debug(ptr noundef nonnull @.str, i32 noundef 305, ptr noundef nonnull @__func__.ASN1_STRING_set) #13
  tail call void (i32, i32, ptr, ...) @ERR_set_error(i32 noundef 13, i32 noundef 223, ptr noundef null) #13
  br label %34

14:                                               ; preds = %11
  %15 = load i32, ptr %0, align 8, !tbaa !26
  %16 = sext i32 %15 to i64
  %.not = icmp ult i64 %.0, %16
  %17 = getelementptr inbounds nuw i8, ptr %0, i64 8
  %18 = load ptr, ptr %17, align 8, !tbaa !25
  br i1 %.not, label %19, label %._crit_edge

19:                                               ; preds = %14
  %20 = icmp eq ptr %18, null
  br i1 %20, label %._crit_edge, label %27

._crit_edge:                                      ; preds = %14, %19
  %21 = phi ptr [ null, %19 ], [ %18, %14 ]
  %22 = getelementptr inbounds nuw i8, ptr %0, i64 8
  %23 = add nuw nsw i64 %.0, 1
  %24 = tail call ptr @CRYPTO_realloc(ptr noundef %21, i64 noundef %23, ptr noundef nonnull @.str, i32 noundef 314) #13
  store ptr %24, ptr %22, align 8, !tbaa !25
  %25 = icmp eq ptr %24, null
  br i1 %25, label %26, label %27

26:                                               ; preds = %._crit_edge
  store ptr %21, ptr %22, align 8, !tbaa !25
  br label %34

27:                                               ; preds = %._crit_edge, %19
  %28 = phi ptr [ %24, %._crit_edge ], [ %18, %19 ]
  %29 = trunc nuw nsw i64 %.0 to i32
  store i32 %29, ptr %0, align 8, !tbaa !26
  %.not27 = icmp eq ptr %1, null
  br i1 %.not27, label %34, label %30

30:                                               ; preds = %27
  %31 = getelementptr inbounds nuw i8, ptr %0, i64 8
  tail call void @llvm.memcpy.p0.p0.i64(ptr nonnull align 1 %28, ptr nonnull align 1 %1, i64 %.0, i1 false)
  %32 = load ptr, ptr %31, align 8, !tbaa !25
  %33 = getelementptr inbounds nuw i8, ptr %32, i64 %.0
  store i8 0, ptr %33, align 1, !tbaa !8
  br label %34

34:                                               ; preds = %27, %30, %5, %26, %13
  %.024 = phi i32 [ 0, %13 ], [ 0, %26 ], [ 0, %5 ], [ 1, %30 ], [ 1, %27 ]
  ret i32 %.024
}